; Function Attrs: nounwind uwtable
define ptr @Saig_ManAbstractionDfs_rec(ptr noundef %0, ptr noundef captures(none) %1) local_unnamed_addr #0 {
  %3 = getelementptr inbounds nuw i8, ptr %1, i64 40
  %4 = load ptr, ptr %3, align 8, !tbaa !24
  %.not = icmp eq ptr %4, null
  br i1 %.not, label %5, label %39

5:                                                ; preds = %2
  %6 = getelementptr i8, ptr %1, i64 8
  %.val = load ptr, ptr %6, align 8, !tbaa !33
  %7 = ptrtoint ptr %.val to i64
  %8 = and i64 %7, -2
  %9 = inttoptr i64 %8 to ptr
  %10 = tail call ptr @Saig_ManAbstractionDfs_rec(ptr noundef %0, ptr noundef %9)
  %11 = getelementptr i8, ptr %1, i64 16
  %.val13 = load ptr, ptr %11, align 8, !tbaa !34
  %12 = ptrtoint ptr %.val13 to i64
  %13 = and i64 %12, -2
  %14 = inttoptr i64 %13 to ptr
  %15 = tail call ptr @Saig_ManAbstractionDfs_rec(ptr noundef %0, ptr noundef %14)
  %.val12 = load ptr, ptr %6, align 8, !tbaa !33
  %16 = ptrtoint ptr %.val12 to i64
  %17 = and i64 %16, -2
  %.not.i = icmp eq i64 %17, 0
  br i1 %.not.i, label %Aig_ObjChild0Copy.exit, label %18

18:                                               ; preds = %5
  %19 = inttoptr i64 %17 to ptr
  %20 = getelementptr inbounds nuw i8, ptr %19, i64 40
  %21 = load ptr, ptr %20, align 8, !tbaa !24
  %22 = and i64 %16, 1
  %23 = ptrtoint ptr %21 to i64
  %24 = xor i64 %22, %23
  %25 = inttoptr i64 %24 to ptr
  br label %Aig_ObjChild0Copy.exit

Aig_ObjChild0Copy.exit:                           ; preds = %5, %18
  %26 = phi ptr [ %25, %18 ], [ null, %5 ]
  %.val14 = load ptr, ptr %11, align 8, !tbaa !34
  %27 = ptrtoint ptr %.val14 to i64
  %28 = and i64 %27, -2
  %.not.i15 = icmp eq i64 %28, 0
  br i1 %.not.i15, label %Aig_ObjChild1Copy.exit, label %29

29:                                               ; preds = %Aig_ObjChild0Copy.exit
  %30 = inttoptr i64 %28 to ptr
  %31 = getelementptr inbounds nuw i8, ptr %30, i64 40
  %32 = load ptr, ptr %31, align 8, !tbaa !24
  %33 = and i64 %27, 1
  %34 = ptrtoint ptr %32 to i64
  %35 = xor i64 %33, %34
  %36 = inttoptr i64 %35 to ptr
  br label %Aig_ObjChild1Copy.exit

Aig_ObjChild1Copy.exit:                           ; preds = %Aig_ObjChild0Copy.exit, %29
  %37 = phi ptr [ %36, %29 ], [ null, %Aig_ObjChild0Copy.exit ]
  %38 = tail call ptr @Aig_And(ptr noundef %0, ptr noundef %26, ptr noundef %37) #9
  store ptr %38, ptr %3, align 8, !tbaa !24
  br label %39

39:                                               ; preds = %2, %Aig_ObjChild1Copy.exit
  %.0 = phi ptr [ %38, %Aig_ObjChild1Copy.exit ], [ %4, %2 ]
  ret ptr %.0
}